; Def File for lib <WER.dll> created with fTools
; Created on Mon Oct 10 13:23:53 2016

LIBRARY WER.dll
EXPORTS
; Log File for lib <WER.dll> created with fTools

"?WerSysprepCleanup@@YGKXZ"
"?WerSysprepGeneralize@@YGKXZ"
"?WerSysprepSpecialize@@YGKXZ"
"?WerUnattendedSetup@@YGXXZ"
"?WerpAddAppCompatData@@YGJPAXPBG1@Z"
"?WerpAddFile@@YGJPAXPBGW4_WER_FILE_TYPE@@K11@Z"
"?WerpAddMemoryBlock@@YGJPAX0K@Z"
"?WerpAddRegisteredDataToReport@@YGJPAX0@Z"
"?WerpAddSecondaryParameter@@YGJPAXPBG1@Z"
"?WerpAddTextToReport@@YGJPAXPBG1@Z"
"?WerpArchiveReport@@YGJPAXPBGHPAPAXPAH@Z"
"?WerpCancelResponseDownload@@YGJPAX@Z"
"?WerpCancelUpload@@YGJPAX@Z"
"?WerpCloseStore@@YGXPAX@Z"
"?WerpCreateIntegratorReportId@@YGJPAPBG@Z"
"?WerpCreateMachineStore@@YGJXZ"
"?WerpDeleteReport@@YGJPAXPBG@Z"
"?WerpDestroyWerString@@YGXPAPAX@Z"
"?WerpDownloadResponse@@YGJPAX0PBGHKK1@Z"
"?WerpDownloadResponseTemplate@@YGJPAXPBG0@Z"
"?WerpEnumerateStoreNext@@YGJPAXPAPAX@Z"
"?WerpEnumerateStoreStart@@YGJPAX@Z"
"?WerpExtractReportFiles@@YGJPAXPBG0@Z"
"?WerpFreeString@@YGXPBG@Z"
"?WerpGetBucketId@@YGJPAXPAH@Z"
"?WerpGetBucketString@@YGJPAXPAPAX@Z"
"?WerpGetDynamicParameter@@YGJPAXKPAPBG1@Z"
"?WerpGetEventType@@YGJPAXPAPBG@Z"
"?WerpGetFileByIndex@@YGJPAXKPAW4_WER_FILE_TYPE@@PAKPAPBG3@Z"
"?WerpGetFilePathByIndex@@YGJPAXKPAPBG@Z"
"?WerpGetIntegratorReportId@@YGJPAXPAPBG@Z"
"?WerpGetLoadedModuleByIndex@@YGJPAXKPAPBG@Z"
"?WerpGetNumFiles@@YGJPAXPAK@Z"
"?WerpGetNumLoadedModules@@YGJPAXPAK@Z"
"?WerpGetNumSecParams@@YGJPAXPAK@Z"
"?WerpGetNumSigParams@@YGJPAXPAK@Z"
"?WerpGetReportFinalConsent@@YGJPAXPAW4_CONSENT_SETTING@@@Z"
"?WerpGetReportFlags@@YGJPAXPAK@Z"
"?WerpGetReportInformation@@YGJPAXPAPBU_WER_REPORT_INFORMATION@@@Z"
"?WerpGetReportSettings@@YGJPAXPAPAVCSettings@@@Z"
"?WerpGetReportTime@@YGJPAXPAU_FILETIME@@@Z"
"?WerpGetReportType@@YGJPAXPAW4_WER_REPORT_TYPE@@@Z"
"?WerpGetResponseId@@YGJPAXPAH1@Z"
"?WerpGetResponseUrl@@YGJPAXPAPBG@Z"
"?WerpGetSecParamByIndex@@YGJPAXKPAPBG1@Z"
"?WerpGetSigParamByIndex@@YGJPAXKPAPBG1@Z"
"?WerpGetStoreLocation@@YGJPAXPAGPAK@Z"
"?WerpGetStorePath@@YGJW4_REPORT_STORE_TYPES@@PAGPAK@Z"
"?WerpGetStoreType@@YGJPAXPAW4_REPORT_STORE_TYPES@@@Z"
"?WerpGetTextFromReport@@YGJPAXPBGPAPBG@Z"
"?WerpGetUIParamByIndex@@YGJPAXKPAPBG@Z"
"?WerpGetUploadTime@@YGJPAXPAU_FILETIME@@@Z"
"?WerpGetWerStringData@@YGPBGPAX@Z"
"?WerpGetWow64Process@@YGJPAXPAH@Z"
"?WerpIsTransportAvailable@@YGHXZ"
"?WerpLoadReport@@YGJPAXPBGPAPAXHH@Z"
"?WerpOpenMachineArchive@@YGJPAPAX@Z"
"?WerpOpenMachineQueue@@YGJPAPAX@Z"
"?WerpOpenUserArchive@@YGJPAPAX@Z"
"?WerpPromtUser@@YGJPAXPAUHWND__@@PAU_WER_USER_PROMPT_INPUT@@PAH@Z"
"?WerpReportCancel@@YGJPAX@Z"
"?WerpRestartApplication@@YGJPAXPBG1PAH2@Z"
"?WerpSetDynamicParameter@@YGJPAXKPBG1@Z"
"?WerpSetEventName@@YGJPAXPBG@Z"
"?WerpSetIntegratorReportId@@YGJPAXPBG@Z"
"?WerpSetReportFlags@@YGJPAXK@Z"
"?WerpSetReportInformation@@YGJPAXQAU_WER_REPORT_INFORMATION@@@Z"
"?WerpSetReportTime@@YGJPAXPAU_FILETIME@@@Z"
"?WerpSetReportUploadContextToken@@YGJPAX0@Z"
"?WerpShowUpsellUI@@YGJPAUHWND__@@PAH@Z"
"?WerpSubmitReportFromStore@@YGJPAXPBG0PAVIReportUI@@PAPAXKPAW4_WER_SUBMIT_RESULT@@@Z"
"?WerpSvcReportFromMachineQueue@@YGJKPBG@Z"
"?WerpUpdateReportResponse@@YGJPAXPBG1@Z"
"_WerAddExcludedApplication@8"
"_WerRemoveExcludedApplication@8"
"_WerReportAddDump@28"
"_WerReportAddFile@16"
"_WerReportCloseHandle@4"
"_WerReportCreate@16"
"_WerReportSetParameter@16"
"_WerReportSetUIOption@12"
"_WerReportSubmit@16"
"_WerpGetReportConsent@12"
"_WerpIsDisabled@8"
"_WerpLaunchResponse@8"
"_WerpOpenUserQueue@4"
"_WerpSetCallBack@12"
"_WerpSetDefaultUserConsent@8"

; Def built in 0.005521 seconds
