; Def File for lib <vssapi.dll> created with fTools
; Created on Mon Oct 10 12:09:48 2016

LIBRARY vssapi.dll
EXPORTS
; Log File for lib <vssapi.dll> created with fTools

"??0CVssJetWriter@@QEAA@XZ"
"??1CVssJetWriter@@UEAA@XZ"
"?AreComponentsSelected@CVssJetWriter@@IEBA_NXZ"
"?CreateVssSnapshotSetDescription@@YAJU_GUID@@JPEAPEAVIVssSnapshotSetDescription@@@Z"
"?GetBackupType@CVssJetWriter@@IEBA?AW4_VSS_BACKUP_TYPE@@XZ"
"?GetContext@CVssJetWriter@@IEBAJXZ"
"?GetCurrentLevel@CVssJetWriter@@IEBA?AW4_VSS_APPLICATION_LEVEL@@XZ"
"?GetCurrentSnapshotSetId@CVssJetWriter@@IEBA?AU_GUID@@XZ"
"?GetCurrentVolumeArray@CVssJetWriter@@IEBAPEAPEBGXZ"
"?GetCurrentVolumeCount@CVssJetWriter@@IEBAIXZ"
"?GetRestoreType@CVssJetWriter@@IEBA?AW4_VSS_RESTORE_TYPE@@XZ"
"?GetSnapshotDeviceName@CVssJetWriter@@IEBAJPEBGPEAPEBG@Z"
"?Initialize@CVssJetWriter@@QEAAJU_GUID@@PEBG_N211K@Z"
"?IsBootableSystemStateBackedUp@CVssJetWriter@@IEBA_NXZ"
"?IsPartialFileSupportEnabled@CVssJetWriter@@IEBA_NXZ"
"?IsPathAffected@CVssJetWriter@@IEBA_NPEBG@Z"
"?LoadVssSnapshotSetDescription@@YAJPEBGPEAPEAVIVssSnapshotSetDescription@@U_GUID@@@Z"
"?OnAbortBegin@CVssJetWriter@@UEAAXXZ"
"?OnAbortEnd@CVssJetWriter@@UEAAXXZ"
"?OnBackupCompleteBegin@CVssJetWriter@@UEAA_NPEAVIVssWriterComponents@@@Z"
"?OnBackupCompleteEnd@CVssJetWriter@@UEAA_NPEAVIVssWriterComponents@@_N@Z"
"?OnFreezeBegin@CVssJetWriter@@UEAA_NXZ"
"?OnFreezeEnd@CVssJetWriter@@UEAA_N_N@Z"
"?OnIdentify@CVssJetWriter@@UEAA_NPEAVIVssCreateWriterMetadata@@@Z"
"?OnPostRestoreBegin@CVssJetWriter@@UEAA_NPEAVIVssWriterComponents@@@Z"
"?OnPostRestoreEnd@CVssJetWriter@@UEAA_NPEAVIVssWriterComponents@@_N@Z"
"?OnPostSnapshot@CVssJetWriter@@UEAA_NPEAVIVssWriterComponents@@@Z"
"?OnPreRestoreBegin@CVssJetWriter@@UEAA_NPEAVIVssWriterComponents@@@Z"
"?OnPreRestoreEnd@CVssJetWriter@@UEAA_NPEAVIVssWriterComponents@@_N@Z"
"?OnPrepareBackupBegin@CVssJetWriter@@UEAA_NPEAVIVssWriterComponents@@@Z"
"?OnPrepareBackupEnd@CVssJetWriter@@UEAA_NPEAVIVssWriterComponents@@_N@Z"
"?OnPrepareSnapshotBegin@CVssJetWriter@@UEAA_NXZ"
"?OnPrepareSnapshotEnd@CVssJetWriter@@UEAA_N_N@Z"
"?OnThawBegin@CVssJetWriter@@UEAA_NXZ"
"?OnThawEnd@CVssJetWriter@@UEAA_N_N@Z"
"?SetWriterFailure@CVssJetWriter@@IEAAJJ@Z"
"?Uninitialize@CVssJetWriter@@QEAAXXZ"
"CreateVssBackupComponentsInternal"
"CreateVssExamineWriterMetadataInternal"
"CreateVssExpressWriterInternal"
"CreateWriter"
"CreateWriterEx"
"GetProviderMgmtInterfaceInternal"
"IsVolumeSnapshottedInternal"
"ShouldBlockRevertInternal"
"VssFreeSnapshotPropertiesInternal"

; Def built in 0.002364 seconds
