; Def File for lib <WER.dll> created with fTools
; Created on Mon Oct 10 12:09:57 2016

LIBRARY WER.dll
EXPORTS
; Log File for lib <WER.dll> created with fTools

"?WerSysprepCleanup@@YAKXZ"
"?WerSysprepGeneralize@@YAKXZ"
"?WerSysprepSpecialize@@YAKXZ"
"?WerUnattendedSetup@@YAXXZ"
"?WerpAddAppCompatData@@YAJPEAXPEBG1@Z"
"?WerpAddFile@@YAJPEAXPEBGW4_WER_FILE_TYPE@@K11@Z"
"?WerpAddMemoryBlock@@YAJPEAX0K@Z"
"?WerpAddRegisteredDataToReport@@YAJPEAX0@Z"
"?WerpAddSecondaryParameter@@YAJPEAXPEBG1@Z"
"?WerpAddTextToReport@@YAJPEAXPEBG1@Z"
"?WerpArchiveReport@@YAJPEAXPEBGHPEAPEAXPEAH@Z"
"?WerpCancelResponseDownload@@YAJPEAX@Z"
"?WerpCancelUpload@@YAJPEAX@Z"
"?WerpCloseStore@@YAXPEAX@Z"
"?WerpCreateIntegratorReportId@@YAJPEAPEBG@Z"
"?WerpCreateMachineStore@@YAJXZ"
"?WerpDeleteReport@@YAJPEAXPEBG@Z"
"?WerpDestroyWerString@@YAXPEAPEAX@Z"
"?WerpDownloadResponse@@YAJPEAX0PEBGHKK1@Z"
"?WerpDownloadResponseTemplate@@YAJPEAXPEBG0@Z"
"?WerpEnumerateStoreNext@@YAJPEAXPEAPEAX@Z"
"?WerpEnumerateStoreStart@@YAJPEAX@Z"
"?WerpExtractReportFiles@@YAJPEAXPEBG0@Z"
"?WerpFreeString@@YAXPEBG@Z"
"?WerpGetBucketId@@YAJPEAXPEAH@Z"
"?WerpGetBucketString@@YAJPEAXPEAPEAX@Z"
"?WerpGetDynamicParameter@@YAJPEAXKPEAPEBG1@Z"
"?WerpGetEventType@@YAJPEAXPEAPEBG@Z"
"?WerpGetFileByIndex@@YAJPEAXKPEAW4_WER_FILE_TYPE@@PEAKPEAPEBG3@Z"
"?WerpGetFilePathByIndex@@YAJPEAXKPEAPEBG@Z"
"?WerpGetIntegratorReportId@@YAJPEAXPEAPEBG@Z"
"?WerpGetLoadedModuleByIndex@@YAJPEAXKPEAPEBG@Z"
"?WerpGetNumFiles@@YAJPEAXPEAK@Z"
"?WerpGetNumLoadedModules@@YAJPEAXPEAK@Z"
"?WerpGetNumSecParams@@YAJPEAXPEAK@Z"
"?WerpGetNumSigParams@@YAJPEAXPEAK@Z"
"?WerpGetReportFinalConsent@@YAJPEAXPEAW4_CONSENT_SETTING@@@Z"
"?WerpGetReportFlags@@YAJPEAXPEAK@Z"
"?WerpGetReportInformation@@YAJPEAXPEAPEBU_WER_REPORT_INFORMATION@@@Z"
"?WerpGetReportSettings@@YAJPEAXPEAPEAVCSettings@@@Z"
"?WerpGetReportTime@@YAJPEAXPEAU_FILETIME@@@Z"
"?WerpGetReportType@@YAJPEAXPEAW4_WER_REPORT_TYPE@@@Z"
"?WerpGetResponseId@@YAJPEAXPEAH1@Z"
"?WerpGetResponseUrl@@YAJPEAXPEAPEBG@Z"
"?WerpGetSecParamByIndex@@YAJPEAXKPEAPEBG1@Z"
"?WerpGetSigParamByIndex@@YAJPEAXKPEAPEBG1@Z"
"?WerpGetStoreLocation@@YAJPEAXPEAGPEAK@Z"
"?WerpGetStorePath@@YAJW4_REPORT_STORE_TYPES@@PEAGPEAK@Z"
"?WerpGetStoreType@@YAJPEAXPEAW4_REPORT_STORE_TYPES@@@Z"
"?WerpGetTextFromReport@@YAJPEAXPEBGPEAPEBG@Z"
"?WerpGetUIParamByIndex@@YAJPEAXKPEAPEBG@Z"
"?WerpGetUploadTime@@YAJPEAXPEAU_FILETIME@@@Z"
"?WerpGetWerStringData@@YAPEBGPEAX@Z"
"?WerpGetWow64Process@@YAJPEAXPEAH@Z"
"?WerpIsTransportAvailable@@YAHXZ"
"?WerpLoadReport@@YAJPEAXPEBGPEAPEAXHH@Z"
"?WerpOpenMachineArchive@@YAJPEAPEAX@Z"
"?WerpOpenMachineQueue@@YAJPEAPEAX@Z"
"?WerpOpenUserArchive@@YAJPEAPEAX@Z"
"?WerpPromtUser@@YAJPEAXPEAUHWND__@@PEAU_WER_USER_PROMPT_INPUT@@PEAH@Z"
"?WerpReportCancel@@YAJPEAX@Z"
"?WerpRestartApplication@@YAJPEAXPEBG1PEAH2@Z"
"?WerpSetDynamicParameter@@YAJPEAXKPEBG1@Z"
"?WerpSetEventName@@YAJPEAXPEBG@Z"
"?WerpSetIntegratorReportId@@YAJPEAXPEBG@Z"
"?WerpSetReportFlags@@YAJPEAXK@Z"
"?WerpSetReportInformation@@YAJPEAXQEAU_WER_REPORT_INFORMATION@@@Z"
"?WerpSetReportTime@@YAJPEAXPEAU_FILETIME@@@Z"
"?WerpSetReportUploadContextToken@@YAJPEAX0@Z"
"?WerpShowUpsellUI@@YAJPEAUHWND__@@PEAH@Z"
"?WerpSubmitReportFromStore@@YAJPEAXPEBG0PEAVIReportUI@@PEAPEAXKPEAW4_WER_SUBMIT_RESULT@@@Z"
"?WerpSvcReportFromMachineQueue@@YAJKPEBG@Z"
"?WerpUpdateReportResponse@@YAJPEAXPEBG1@Z"
"WerAddExcludedApplication"
"WerRemoveExcludedApplication"
"WerReportAddDump"
"WerReportAddFile"
"WerReportCloseHandle"
"WerReportCreate"
"WerReportSetParameter"
"WerReportSetUIOption"
"WerReportSubmit"
"WerpGetReportConsent"
"WerpIsDisabled"
"WerpLaunchResponse"
"WerpOpenUserQueue"
"WerpSetCallBack"
"WerpSetDefaultUserConsent"

; Def built in 0.002789 seconds
